target datalayout = "e-m:e-p270:32:32-p271:32:32-p272:64:64-i64:64-f80:128-n8:16:32:64-S128"
target triple = "x86_64-pc-linux-gnu"

@a = dso_local global [9 x [9 x i32]] zeroinitializer, align 16
@b = common dso_local global [9 x [9 x i32]] zeroinitializer, align 16
@.str = private unnamed_addr constant [6 x i8] c"%d %d\00", align 1
@.str.1 = private unnamed_addr constant [4 x i8] c"%d \00", align 1
@.str.2 = private unnamed_addr constant [4 x i8] c"%d\0A\00", align 1

; Function Attrs: noinline nounwind uwtable
define dso_local void @fanzhi(i32 %0, i32 %1) #0 {
  %3 = alloca i32, align 4
  %4 = alloca i32, align 4
  %5 = alloca i32, align 4
  %6 = alloca i32, align 4
  store i32 %0, i32* %3, align 4
  store i32 %1, i32* %4, align 4
  %7 = load i32, i32* %3, align 4
  %8 = sub nsw i32 %7, 1
  store i32 %8, i32* %5, align 4
  br label %9

9:                                                ; preds = %48, %2
  %10 = load i32, i32* %5, align 4
  %11 = load i32, i32* %3, align 4
  %12 = add nsw i32 %11, 1
  %13 = icmp sle i32 %10, %12
  br i1 %13, label %14, label %51

14:                                               ; preds = %9
  %15 = load i32, i32* %4, align 4
  %16 = sub nsw i32 %15, 1
  store i32 %16, i32* %6, align 4
  br label %17

17:                                               ; preds = %44, %14
  %18 = load i32, i32* %6, align 4
  %19 = load i32, i32* %4, align 4
  %20 = add nsw i32 %19, 1
  %21 = icmp sle i32 %18, %20
  br i1 %21, label %22, label %47

22:                                               ; preds = %17
  %23 = load i32, i32* %5, align 4
  %24 = sext i32 %23 to i64
  %25 = getelementptr inbounds [9 x [9 x i32]], [9 x [9 x i32]]* @b, i64 0, i64 %24
  %26 = load i32, i32* %6, align 4
  %27 = sext i32 %26 to i64
  %28 = getelementptr inbounds [9 x i32], [9 x i32]* %25, i64 0, i64 %27
  %29 = load i32, i32* %28, align 4
  %30 = load i32, i32* %3, align 4
  %31 = sext i32 %30 to i64
  %32 = getelementptr inbounds [9 x [9 x i32]], [9 x [9 x i32]]* @a, i64 0, i64 %31
  %33 = load i32, i32* %4, align 4
  %34 = sext i32 %33 to i64
  %35 = getelementptr inbounds [9 x i32], [9 x i32]* %32, i64 0, i64 %34
  %36 = load i32, i32* %35, align 4
  %37 = add nsw i32 %29, %36
  %38 = load i32, i32* %5, align 4
  %39 = sext i32 %38 to i64
  %40 = getelementptr inbounds [9 x [9 x i32]], [9 x [9 x i32]]* @b, i64 0, i64 %39
  %41 = load i32, i32* %6, align 4
  %42 = sext i32 %41 to i64
  %43 = getelementptr inbounds [9 x i32], [9 x i32]* %40, i64 0, i64 %42
  store i32 %37, i32* %43, align 4
  br label %44

44:                                               ; preds = %22
  %45 = load i32, i32* %6, align 4
  %46 = add nsw i32 %45, 1
  store i32 %46, i32* %6, align 4
  br label %17

47:                                               ; preds = %17
  br label %48

48:                                               ; preds = %47
  %49 = load i32, i32* %5, align 4
  %50 = add nsw i32 %49, 1
  store i32 %50, i32* %5, align 4
  br label %9

51:                                               ; preds = %9
  %52 = load i32, i32* %3, align 4
  %53 = sext i32 %52 to i64
  %54 = getelementptr inbounds [9 x [9 x i32]], [9 x [9 x i32]]* @b, i64 0, i64 %53
  %55 = load i32, i32* %4, align 4
  %56 = sext i32 %55 to i64
  %57 = getelementptr inbounds [9 x i32], [9 x i32]* %54, i64 0, i64 %56
  %58 = load i32, i32* %57, align 4
  %59 = load i32, i32* %3, align 4
  %60 = sext i32 %59 to i64
  %61 = getelementptr inbounds [9 x [9 x i32]], [9 x [9 x i32]]* @a, i64 0, i64 %60
  %62 = load i32, i32* %4, align 4
  %63 = sext i32 %62 to i64
  %64 = getelementptr inbounds [9 x i32], [9 x i32]* %61, i64 0, i64 %63
  %65 = load i32, i32* %64, align 4
  %66 = add nsw i32 %58, %65
  %67 = load i32, i32* %3, align 4
  %68 = sext i32 %67 to i64
  %69 = getelementptr inbounds [9 x [9 x i32]], [9 x [9 x i32]]* @b, i64 0, i64 %68
  %70 = load i32, i32* %4, align 4
  %71 = sext i32 %70 to i64
  %72 = getelementptr inbounds [9 x i32], [9 x i32]* %69, i64 0, i64 %71
  store i32 %66, i32* %72, align 4
  ret void
}

; Function Attrs: noinline nounwind uwtable
define dso_local i32 @main() #0 {
  %1 = alloca i32, align 4
  %2 = alloca i32, align 4
  %3 = alloca i32, align 4
  %4 = alloca i32, align 4
  %5 = alloca i32, align 4
  %6 = alloca i32, align 4
  store i32 0, i32* %1, align 4
  %7 = call i32 (i8*, ...) @__isoc99_scanf(i8* getelementptr inbounds ([6 x i8], [6 x i8]* @.str, i64 0, i64 0), i32* %2, i32* %3)
  %8 = load i32, i32* %2, align 4
  store i32 %8, i32* getelementptr inbounds ([9 x [9 x i32]], [9 x [9 x i32]]* @a, i64 0, i64 4, i64 4), align 16
  store i32 1, i32* %4, align 4
  br label %9

9:                                                ; preds = %81, %0
  %10 = load i32, i32* %4, align 4
  %11 = load i32, i32* %3, align 4
  %12 = icmp sle i32 %10, %11
  br i1 %12, label %13, label %84

13:                                               ; preds = %9
  call void @llvm.memset.p0i8.i64(i8* align 16 bitcast ([9 x [9 x i32]]* @b to i8*), i8 0, i64 324, i1 false)
  %14 = load i32, i32* %4, align 4
  %15 = sub nsw i32 4, %14
  %16 = add nsw i32 %15, 1
  store i32 %16, i32* %5, align 4
  br label %17

17:                                               ; preds = %40, %13
  %18 = load i32, i32* %5, align 4
  %19 = load i32, i32* %4, align 4
  %20 = add nsw i32 4, %19
  %21 = sub nsw i32 %20, 1
  %22 = icmp sle i32 %18, %21
  br i1 %22, label %23, label %43

23:                                               ; preds = %17
  %24 = load i32, i32* %4, align 4
  %25 = sub nsw i32 4, %24
  %26 = add nsw i32 %25, 1
  store i32 %26, i32* %6, align 4
  br label %27

27:                                               ; preds = %36, %23
  %28 = load i32, i32* %6, align 4
  %29 = load i32, i32* %4, align 4
  %30 = add nsw i32 4, %29
  %31 = sub nsw i32 %30, 1
  %32 = icmp sle i32 %28, %31
  br i1 %32, label %33, label %39

33:                                               ; preds = %27
  %34 = load i32, i32* %5, align 4
  %35 = load i32, i32* %6, align 4
  call void @fanzhi(i32 %34, i32 %35)
  br label %36

36:                                               ; preds = %33
  %37 = load i32, i32* %6, align 4
  %38 = add nsw i32 %37, 1
  store i32 %38, i32* %6, align 4
  br label %27

39:                                               ; preds = %27
  br label %40

40:                                               ; preds = %39
  %41 = load i32, i32* %5, align 4
  %42 = add nsw i32 %41, 1
  store i32 %42, i32* %5, align 4
  br label %17

43:                                               ; preds = %17
  %44 = load i32, i32* %4, align 4
  %45 = sub nsw i32 4, %44
  store i32 %45, i32* %5, align 4
  br label %46

46:                                               ; preds = %77, %43
  %47 = load i32, i32* %5, align 4
  %48 = load i32, i32* %4, align 4
  %49 = add nsw i32 4, %48
  %50 = icmp sle i32 %47, %49
  br i1 %50, label %51, label %80

51:                                               ; preds = %46
  %52 = load i32, i32* %4, align 4
  %53 = sub nsw i32 4, %52
  store i32 %53, i32* %6, align 4
  br label %54

54:                                               ; preds = %73, %51
  %55 = load i32, i32* %6, align 4
  %56 = load i32, i32* %4, align 4
  %57 = add nsw i32 4, %56
  %58 = icmp sle i32 %55, %57
  br i1 %58, label %59, label %76

59:                                               ; preds = %54
  %60 = load i32, i32* %5, align 4
  %61 = sext i32 %60 to i64
  %62 = getelementptr inbounds [9 x [9 x i32]], [9 x [9 x i32]]* @b, i64 0, i64 %61
  %63 = load i32, i32* %6, align 4
  %64 = sext i32 %63 to i64
  %65 = getelementptr inbounds [9 x i32], [9 x i32]* %62, i64 0, i64 %64
  %66 = load i32, i32* %65, align 4
  %67 = load i32, i32* %5, align 4
  %68 = sext i32 %67 to i64
  %69 = getelementptr inbounds [9 x [9 x i32]], [9 x [9 x i32]]* @a, i64 0, i64 %68
  %70 = load i32, i32* %6, align 4
  %71 = sext i32 %70 to i64
  %72 = getelementptr inbounds [9 x i32], [9 x i32]* %69, i64 0, i64 %71
  store i32 %66, i32* %72, align 4
  br label %73

73:                                               ; preds = %59
  %74 = load i32, i32* %6, align 4
  %75 = add nsw i32 %74, 1
  store i32 %75, i32* %6, align 4
  br label %54

76:                                               ; preds = %54
  br label %77

77:                                               ; preds = %76
  %78 = load i32, i32* %5, align 4
  %79 = add nsw i32 %78, 1
  store i32 %79, i32* %5, align 4
  br label %46

80:                                               ; preds = %46
  br label %81

81:                                               ; preds = %80
  %82 = load i32, i32* %4, align 4
  %83 = add nsw i32 %82, 1
  store i32 %83, i32* %4, align 4
  br label %9

84:                                               ; preds = %9
  store i32 0, i32* %5, align 4
  br label %85

85:                                               ; preds = %111, %84
  %86 = load i32, i32* %5, align 4
  %87 = icmp sle i32 %86, 8
  br i1 %87, label %88, label %114

88:                                               ; preds = %85
  store i32 0, i32* %6, align 4
  br label %89

89:                                               ; preds = %101, %88
  %90 = load i32, i32* %6, align 4
  %91 = icmp sle i32 %90, 7
  br i1 %91, label %92, label %104

92:                                               ; preds = %89
  %93 = load i32, i32* %5, align 4
  %94 = sext i32 %93 to i64
  %95 = getelementptr inbounds [9 x [9 x i32]], [9 x [9 x i32]]* @a, i64 0, i64 %94
  %96 = load i32, i32* %6, align 4
  %97 = sext i32 %96 to i64
  %98 = getelementptr inbounds [9 x i32], [9 x i32]* %95, i64 0, i64 %97
  %99 = load i32, i32* %98, align 4
  %100 = call i32 (i8*, ...) @printf(i8* getelementptr inbounds ([4 x i8], [4 x i8]* @.str.1, i64 0, i64 0), i32 %99)
  br label %101

101:                                              ; preds = %92
  %102 = load i32, i32* %6, align 4
  %103 = add nsw i32 %102, 1
  store i32 %103, i32* %6, align 4
  br label %89

104:                                              ; preds = %89
  %105 = load i32, i32* %5, align 4
  %106 = sext i32 %105 to i64
  %107 = getelementptr inbounds [9 x [9 x i32]], [9 x [9 x i32]]* @a, i64 0, i64 %106
  %108 = getelementptr inbounds [9 x i32], [9 x i32]* %107, i64 0, i64 8
  %109 = load i32, i32* %108, align 4
  %110 = call i32 (i8*, ...) @printf(i8* getelementptr inbounds ([4 x i8], [4 x i8]* @.str.2, i64 0, i64 0), i32 %109)
  br label %111

111:                                              ; preds = %104
  %112 = load i32, i32* %5, align 4
  %113 = add nsw i32 %112, 1
  store i32 %113, i32* %5, align 4
  br label %85

114:                                              ; preds = %85
  %115 = load i32, i32* %1, align 4
  ret i32 %115
}