; Function Attrs: nofree norecurse nosync nounwind sspstrong uwtable
define dso_local void @fanzhi(i32 %0, i32 %1) local_unnamed_addr #0 {
  %3 = sext i32 %0 to i64
  %4 = sext i32 %1 to i64
  %5 = getelementptr inbounds [9 x [9 x i32]], [9 x [9 x i32]]* @a, i64 0, i64 %3, i64 %4
  %6 = load i32, i32* %5, align 4, !tbaa !5
  %7 = add i32 %1, -1
  %8 = sext i32 %7 to i64
  %9 = add i32 %0, -1
  %10 = sext i32 %9 to i64
  %11 = add nsw i64 %4, 1
  %12 = call i64 @llvm.smax.i64(i64 %11, i64 %8)
  %13 = add i64 %12, 1
  %14 = sub i64 %13, %8
  %15 = add i64 %14, -8
  %16 = lshr i64 %15, 3
  %17 = add nuw nsw i64 %16, 1
  %18 = icmp ult i64 %14, 8
  %19 = and i64 %14, -8
  %20 = add i64 %19, %8
  %21 = insertelement <4 x i32> poison, i32 %6, i32 0
  %22 = shufflevector <4 x i32> %21, <4 x i32> poison, <4 x i32> zeroinitializer
  %23 = insertelement <4 x i32> poison, i32 %6, i32 0
  %24 = shufflevector <4 x i32> %23, <4 x i32> poison, <4 x i32> zeroinitializer
  %25 = and i64 %17, 1
  %26 = icmp ult i64 %15, 8
  %27 = and i64 %17, 4611686018427387902
  %28 = icmp eq i64 %25, 0
  %29 = icmp eq i64 %14, %19
  br label %30

30:                                               ; preds = %2, %86
  %31 = phi i64 [ %10, %2 ], [ %87, %86 ]
  br i1 %18, label %77, label %32

32:                                               ; preds = %30
  br i1 %26, label %62, label %33

33:                                               ; preds = %32, %33
  %34 = phi i64 [ %59, %33 ], [ 0, %32 ]
  %35 = phi i64 [ %60, %33 ], [ %27, %32 ]
  %36 = add i64 %34, %8
  %37 = getelementptr inbounds [9 x [9 x i32]], [9 x [9 x i32]]* @b, i64 0, i64 %31, i64 %36
  %38 = bitcast i32* %37 to <4 x i32>*
  %39 = load <4 x i32>, <4 x i32>* %38, align 4, !tbaa !5
  %40 = getelementptr inbounds i32, i32* %37, i64 4
  %41 = bitcast i32* %40 to <4 x i32>*
  %42 = load <4 x i32>, <4 x i32>* %41, align 4, !tbaa !5
  %43 = add nsw <4 x i32> %22, %39
  %44 = add nsw <4 x i32> %24, %42
  %45 = bitcast i32* %37 to <4 x i32>*
  store <4 x i32> %43, <4 x i32>* %45, align 4, !tbaa !5
  %46 = bitcast i32* %40 to <4 x i32>*
  store <4 x i32> %44, <4 x i32>* %46, align 4, !tbaa !5
  %47 = or i64 %34, 8
  %48 = add i64 %47, %8
  %49 = getelementptr inbounds [9 x [9 x i32]], [9 x [9 x i32]]* @b, i64 0, i64 %31, i64 %48
  %50 = bitcast i32* %49 to <4 x i32>*
  %51 = load <4 x i32>, <4 x i32>* %50, align 4, !tbaa !5
  %52 = getelementptr inbounds i32, i32* %49, i64 4
  %53 = bitcast i32* %52 to <4 x i32>*
  %54 = load <4 x i32>, <4 x i32>* %53, align 4, !tbaa !5
  %55 = add nsw <4 x i32> %22, %51
  %56 = add nsw <4 x i32> %24, %54
  %57 = bitcast i32* %49 to <4 x i32>*
  store <4 x i32> %55, <4 x i32>* %57, align 4, !tbaa !5
  %58 = bitcast i32* %52 to <4 x i32>*
  store <4 x i32> %56, <4 x i32>* %58, align 4, !tbaa !5
  %59 = add nuw i64 %34, 16
  %60 = add i64 %35, -2
  %61 = icmp eq i64 %60, 0
  br i1 %61, label %62, label %33, !llvm.loop !9

62:                                               ; preds = %33, %32
  %63 = phi i64 [ 0, %32 ], [ %59, %33 ]
  br i1 %28, label %76, label %64

64:                                               ; preds = %62
  %65 = add i64 %63, %8
  %66 = getelementptr inbounds [9 x [9 x i32]], [9 x [9 x i32]]* @b, i64 0, i64 %31, i64 %65
  %67 = bitcast i32* %66 to <4 x i32>*
  %68 = load <4 x i32>, <4 x i32>* %67, align 4, !tbaa !5
  %69 = getelementptr inbounds i32, i32* %66, i64 4
  %70 = bitcast i32* %69 to <4 x i32>*
  %71 = load <4 x i32>, <4 x i32>* %70, align 4, !tbaa !5
  %72 = add nsw <4 x i32> %22, %68
  %73 = add nsw <4 x i32> %24, %71
  %74 = bitcast i32* %66 to <4 x i32>*
  store <4 x i32> %72, <4 x i32>* %74, align 4, !tbaa !5
  %75 = bitcast i32* %69 to <4 x i32>*
  store <4 x i32> %73, <4 x i32>* %75, align 4, !tbaa !5
  br label %76

76:                                               ; preds = %62, %64
  br i1 %29, label %86, label %77

77:                                               ; preds = %30, %76
  %78 = phi i64 [ %8, %30 ], [ %20, %76 ]
  br label %79

79:                                               ; preds = %77, %79
  %80 = phi i64 [ %84, %79 ], [ %78, %77 ]
  %81 = getelementptr inbounds [9 x [9 x i32]], [9 x [9 x i32]]* @b, i64 0, i64 %31, i64 %80
  %82 = load i32, i32* %81, align 4, !tbaa !5
  %83 = add nsw i32 %6, %82
  store i32 %83, i32* %81, align 4, !tbaa !5
  %84 = add i64 %80, 1
  %85 = icmp sgt i64 %80, %4
  br i1 %85, label %86, label %79, !llvm.loop !12

86:                                               ; preds = %79, %76
  %87 = add i64 %31, 1
  %88 = icmp sgt i64 %31, %3
  br i1 %88, label %89, label %30, !llvm.loop !14

89:                                               ; preds = %86
  %90 = getelementptr inbounds [9 x [9 x i32]], [9 x [9 x i32]]* @b, i64 0, i64 %3, i64 %4
  %91 = load i32, i32* %90, align 4, !tbaa !5
  %92 = add nsw i32 %6, %91
  store i32 %92, i32* %90, align 4, !tbaa !5
  ret void
}

; Function Attrs: nofree nounwind sspstrong uwtable
define dso_local i32 @main() local_unnamed_addr #2 {
  %1 = alloca i32, align 4
  %2 = alloca i32, align 4
  %3 = bitcast i32* %1 to i8*
  call void @llvm.lifetime.start.p0i8(i64 4, i8* nonnull %3) #7
  %4 = bitcast i32* %2 to i8*
  call void @llvm.lifetime.start.p0i8(i64 4, i8* nonnull %4) #7
  %5 = call i32 (i8*, ...) @__isoc99_scanf(i8* getelementptr inbounds ([6 x i8], [6 x i8]* @.str, i64 0, i64 0), i32* nonnull %1, i32* nonnull %2)
  %6 = load i32, i32* %1, align 4, !tbaa !5
  store i32 %6, i32* getelementptr inbounds ([9 x [9 x i32]], [9 x [9 x i32]]* @a, i64 0, i64 4, i64 4), align 16, !tbaa !5
  %7 = load i32, i32* %2, align 4, !tbaa !5
  %8 = icmp slt i32 %7, 1
  br i1 %8, label %107, label %9

9:                                                ; preds = %0
  %10 = zext i32 %7 to i64
  br label %11

11:                                               ; preds = %9, %101
  %12 = phi i64 [ 0, %9 ], [ %105, %101 ]
  %13 = phi i32 [ 5, %9 ], [ %104, %101 ]
  %14 = phi i64 [ 4, %9 ], [ %103, %101 ]
  %15 = phi i32 [ 1, %9 ], [ %102, %101 ]
  %16 = shl nuw nsw i64 %12, 1
  %17 = mul nsw i64 %12, -10
  %18 = add nsw i64 %17, 3
  %19 = shl nuw nsw i64 %12, 3
  %20 = add nuw nsw i64 %19, 12
  call void @llvm.memset.p0i8.i64(i8* noundef nonnull align 16 dereferenceable(324) bitcast ([9 x [9 x i32]]* @b to i8*), i8 0, i64 324, i1 false)
  %21 = sub nsw i32 4, %15
  %22 = sub nsw i32 5, %15
  %23 = add nuw nsw i32 %15, 3
  %24 = icmp sgt i32 %22, %23
  br i1 %24, label %25, label %30

25:                                               ; preds = %76, %11
  %26 = add nuw nsw i32 %15, 4
  %27 = icmp sgt i32 %21, %26
  br i1 %27, label %101, label %28

28:                                               ; preds = %25
  %29 = add nuw i64 %16, 2
  br label %79

30:                                               ; preds = %11, %76
  %31 = phi i64 [ %33, %76 ], [ %14, %11 ]
  %32 = add nsw i64 %31, -1
  %33 = add nsw i64 %31, 1
  %34 = getelementptr inbounds [9 x [9 x i32]], [9 x [9 x i32]]* @b, i64 0, i64 %32, i64 %14
  %35 = load i32, i32* %34, align 4, !tbaa !5
  %36 = getelementptr inbounds [9 x [9 x i32]], [9 x [9 x i32]]* @b, i64 0, i64 %31, i64 %14
  %37 = load i32, i32* %36, align 4, !tbaa !5
  %38 = getelementptr inbounds [9 x [9 x i32]], [9 x [9 x i32]]* @b, i64 0, i64 %33, i64 %14
  %39 = load i32, i32* %38, align 4, !tbaa !5
  br label %40

40:                                               ; preds = %30, %40
  %41 = phi i32 [ %39, %30 ], [ %71, %40 ]
  %42 = phi i32 [ %37, %30 ], [ %63, %40 ]
  %43 = phi i32 [ %35, %30 ], [ %56, %40 ]
  %44 = phi i64 [ %14, %30 ], [ %53, %40 ]
  %45 = getelementptr inbounds [9 x [9 x i32]], [9 x [9 x i32]]* @a, i64 0, i64 %31, i64 %44
  %46 = load i32, i32* %45, align 4, !tbaa !5
  %47 = add nsw i64 %44, -1
  %48 = getelementptr inbounds [9 x [9 x i32]], [9 x [9 x i32]]* @b, i64 0, i64 %32, i64 %47
  %49 = load i32, i32* %48, align 4, !tbaa !5
  %50 = add nsw i32 %49, %46
  store i32 %50, i32* %48, align 4, !tbaa !5
  %51 = getelementptr inbounds [9 x [9 x i32]], [9 x [9 x i32]]* @b, i64 0, i64 %32, i64 %44
  %52 = add nsw i32 %43, %46
  store i32 %52, i32* %51, align 4, !tbaa !5
  %53 = add nsw i64 %44, 1
  %54 = getelementptr inbounds [9 x [9 x i32]], [9 x [9 x i32]]* @b, i64 0, i64 %32, i64 %53
  %55 = load i32, i32* %54, align 4, !tbaa !5
  %56 = add nsw i32 %55, %46
  store i32 %56, i32* %54, align 4, !tbaa !5
  %57 = getelementptr inbounds [9 x [9 x i32]], [9 x [9 x i32]]* @b, i64 0, i64 %31, i64 %47
  %58 = load i32, i32* %57, align 4, !tbaa !5
  %59 = add nsw i32 %58, %46
  store i32 %59, i32* %57, align 4, !tbaa !5
  %60 = getelementptr inbounds [9 x [9 x i32]], [9 x [9 x i32]]* @b, i64 0, i64 %31, i64 %44
  %61 = getelementptr inbounds [9 x [9 x i32]], [9 x [9 x i32]]* @b, i64 0, i64 %31, i64 %53
  %62 = load i32, i32* %61, align 4, !tbaa !5
  %63 = add nsw i32 %62, %46
  store i32 %63, i32* %61, align 4, !tbaa !5
  %64 = getelementptr inbounds [9 x [9 x i32]], [9 x [9 x i32]]* @b, i64 0, i64 %33, i64 %47
  %65 = load i32, i32* %64, align 4, !tbaa !5
  %66 = add nsw i32 %65, %46
  store i32 %66, i32* %64, align 4, !tbaa !5
  %67 = getelementptr inbounds [9 x [9 x i32]], [9 x [9 x i32]]* @b, i64 0, i64 %33, i64 %44
  %68 = add nsw i32 %41, %46
  store i32 %68, i32* %67, align 4, !tbaa !5
  %69 = getelementptr inbounds [9 x [9 x i32]], [9 x [9 x i32]]* @b, i64 0, i64 %33, i64 %53
  %70 = load i32, i32* %69, align 4, !tbaa !5
  %71 = add nsw i32 %70, %46
  store i32 %71, i32* %69, align 4, !tbaa !5
  %72 = shl i32 %46, 1
  %73 = add i32 %42, %72
  store i32 %73, i32* %60, align 4, !tbaa !5
  %74 = trunc i64 %53 to i32
  %75 = icmp eq i32 %13, %74
  br i1 %75, label %76, label %40, !llvm.loop !15

76:                                               ; preds = %40
  %77 = trunc i64 %33 to i32
  %78 = icmp eq i32 %13, %77
  br i1 %78, label %25, label %30, !llvm.loop !16

79:                                               ; preds = %79, %28
  %80 = phi i64 [ 0, %28 ], [ %92, %79 ]
  %81 = phi i64 [ %29, %28 ], [ %93, %79 ]
  %82 = add nuw nsw i64 %80, 3
  %83 = getelementptr [9 x [9 x i32]], [9 x [9 x i32]]* @a, i64 0, i64 %82, i64 %18
  %84 = bitcast i32* %83 to i8*
  %85 = getelementptr [9 x [9 x i32]], [9 x [9 x i32]]* @b, i64 0, i64 %82, i64 %18
  %86 = bitcast i32* %85 to i8*
  call void @llvm.memcpy.p0i8.p0i8.i64(i8* noundef nonnull align 8 dereferenceable(1) %84, i8* noundef nonnull align 8 dereferenceable(1) %86, i64 %20, i1 false)
  %87 = add nuw nsw i64 %80, 4
  %88 = getelementptr [9 x [9 x i32]], [9 x [9 x i32]]* @a, i64 0, i64 %87, i64 %18
  %89 = bitcast i32* %88 to i8*
  %90 = getelementptr [9 x [9 x i32]], [9 x [9 x i32]]* @b, i64 0, i64 %87, i64 %18
  %91 = bitcast i32* %90 to i8*
  call void @llvm.memcpy.p0i8.p0i8.i64(i8* noundef nonnull align 4 dereferenceable(1) %89, i8* noundef nonnull align 4 dereferenceable(1) %91, i64 %20, i1 false)
  %92 = add nuw nsw i64 %80, 2
  %93 = add nsw i64 %81, -2
  %94 = icmp eq i64 %93, 0
  br i1 %94, label %95, label %79, !llvm.loop !17

95:                                               ; preds = %79
  %96 = add nuw nsw i64 %92, 3
  %97 = getelementptr [9 x [9 x i32]], [9 x [9 x i32]]* @a, i64 0, i64 %96, i64 %18
  %98 = bitcast i32* %97 to i8*
  %99 = getelementptr [9 x [9 x i32]], [9 x [9 x i32]]* @b, i64 0, i64 %96, i64 %18
  %100 = bitcast i32* %99 to i8*
  call void @llvm.memcpy.p0i8.p0i8.i64(i8* noundef nonnull align 4 dereferenceable(1) %98, i8* noundef nonnull align 4 dereferenceable(1) %100, i64 %20, i1 false)
  br label %101

101:                                              ; preds = %95, %25
  %102 = add nuw nsw i32 %15, 1
  %103 = add nsw i64 %14, -1
  %104 = add nuw i32 %13, 1
  %105 = add nuw nsw i64 %12, 1
  %106 = icmp eq i64 %105, %10
  br i1 %106, label %107, label %11, !llvm.loop !18

107:                                              ; preds = %101, %0
  br label %108

108:                                              ; preds = %107, %108
  %109 = phi i64 [ %137, %108 ], [ 0, %107 ]
  %110 = getelementptr inbounds [9 x [9 x i32]], [9 x [9 x i32]]* @a, i64 0, i64 %109, i64 0
  %111 = load i32, i32* %110, align 4, !tbaa !5
  %112 = call i32 (i8*, ...) @printf(i8* nonnull dereferenceable(1) getelementptr inbounds ([4 x i8], [4 x i8]* @.str.1, i64 0, i64 0), i32 %111)
  %113 = getelementptr inbounds [9 x [9 x i32]], [9 x [9 x i32]]* @a, i64 0, i64 %109, i64 1
  %114 = load i32, i32* %113, align 4, !tbaa !5
  %115 = call i32 (i8*, ...) @printf(i8* nonnull dereferenceable(1) getelementptr inbounds ([4 x i8], [4 x i8]* @.str.1, i64 0, i64 0), i32 %114)
  %116 = getelementptr inbounds [9 x [9 x i32]], [9 x [9 x i32]]* @a, i64 0, i64 %109, i64 2
  %117 = load i32, i32* %116, align 4, !tbaa !5
  %118 = call i32 (i8*, ...) @printf(i8* nonnull dereferenceable(1) getelementptr inbounds ([4 x i8], [4 x i8]* @.str.1, i64 0, i64 0), i32 %117)
  %119 = getelementptr inbounds [9 x [9 x i32]], [9 x [9 x i32]]* @a, i64 0, i64 %109, i64 3
  %120 = load i32, i32* %119, align 4, !tbaa !5
  %121 = call i32 (i8*, ...) @printf(i8* nonnull dereferenceable(1) getelementptr inbounds ([4 x i8], [4 x i8]* @.str.1, i64 0, i64 0), i32 %120)
  %122 = getelementptr inbounds [9 x [9 x i32]], [9 x [9 x i32]]* @a, i64 0, i64 %109, i64 4
  %123 = load i32, i32* %122, align 4, !tbaa !5
  %124 = call i32 (i8*, ...) @printf(i8* nonnull dereferenceable(1) getelementptr inbounds ([4 x i8], [4 x i8]* @.str.1, i64 0, i64 0), i32 %123)
  %125 = getelementptr inbounds [9 x [9 x i32]], [9 x [9 x i32]]* @a, i64 0, i64 %109, i64 5
  %126 = load i32, i32* %125, align 4, !tbaa !5
  %127 = call i32 (i8*, ...) @printf(i8* nonnull dereferenceable(1) getelementptr inbounds ([4 x i8], [4 x i8]* @.str.1, i64 0, i64 0), i32 %126)
  %128 = getelementptr inbounds [9 x [9 x i32]], [9 x [9 x i32]]* @a, i64 0, i64 %109, i64 6
  %129 = load i32, i32* %128, align 4, !tbaa !5
  %130 = call i32 (i8*, ...) @printf(i8* nonnull dereferenceable(1) getelementptr inbounds ([4 x i8], [4 x i8]* @.str.1, i64 0, i64 0), i32 %129)
  %131 = getelementptr inbounds [9 x [9 x i32]], [9 x [9 x i32]]* @a, i64 0, i64 %109, i64 7
  %132 = load i32, i32* %131, align 4, !tbaa !5
  %133 = call i32 (i8*, ...) @printf(i8* nonnull dereferenceable(1) getelementptr inbounds ([4 x i8], [4 x i8]* @.str.1, i64 0, i64 0), i32 %132)
  %134 = getelementptr inbounds [9 x [9 x i32]], [9 x [9 x i32]]* @a, i64 0, i64 %109, i64 8
  %135 = load i32, i32* %134, align 4, !tbaa !5
  %136 = call i32 (i8*, ...) @printf(i8* nonnull dereferenceable(1) getelementptr inbounds ([4 x i8], [4 x i8]* @.str.2, i64 0, i64 0), i32 %135)
  %137 = add nuw nsw i64 %109, 1
  %138 = icmp eq i64 %137, 9
  br i1 %138, label %139, label %108, !llvm.loop !19

139:                                              ; preds = %108
  call void @llvm.lifetime.end.p0i8(i64 4, i8* nonnull %4) #7
  call void @llvm.lifetime.end.p0i8(i64 4, i8* nonnull %3) #7
  ret i32 0
}